
sdram.elf:     file format elf32-littlearm

Disassembly of section .text:

30000000 <_start>:
30000000:	e3a00453 	mov	r0, #1392508928	; 0x53000000
30000004:	e3a01000 	mov	r1, #0	; 0x0
30000008:	e5801000 	str	r1, [r0]
3000000c:	e3a00313 	mov	r0, #1275068416	; 0x4c000000
30000010:	e3e01000 	mvn	r1, #0	; 0x0
30000014:	e5801000 	str	r1, [r0]
30000018:	e59f0088 	ldr	r0, [pc, #136]	; 300000a8 <.text+0xa8>
3000001c:	e3a01005 	mov	r1, #5	; 0x5
30000020:	e5801000 	str	r1, [r0]
30000024:	ee110f10 	mrc	15, 0, r0, cr1, cr0, {0}
30000028:	e3800103 	orr	r0, r0, #-1073741824	; 0xc0000000
3000002c:	ee010f10 	mcr	15, 0, r0, cr1, cr0, {0}
30000030:	e59f0074 	ldr	r0, [pc, #116]	; 300000ac <.text+0xac>
30000034:	e59f1074 	ldr	r1, [pc, #116]	; 300000b0 <.text+0xb0>
30000038:	e5801000 	str	r1, [r0]
3000003c:	e3a01000 	mov	r1, #0	; 0x0
30000040:	e5910000 	ldr	r0, [r1]
30000044:	e5811000 	str	r1, [r1]
30000048:	e5912000 	ldr	r2, [r1]
3000004c:	e1510002 	cmp	r1, r2
30000050:	e59fd05c 	ldr	sp, [pc, #92]	; 300000b4 <.text+0xb4>
30000054:	03a0da01 	moveq	sp, #4096	; 0x1000
30000058:	05810000 	streq	r0, [r1]
3000005c:	eb000105 	bl	30000478 <sdram_init>
30000060:	e3a01000 	mov	r1, #0	; 0x0
30000064:	e59f204c 	ldr	r2, [pc, #76]	; 300000b8 <.text+0xb8>
30000068:	e59f304c 	ldr	r3, [pc, #76]	; 300000bc <.text+0xbc>

3000006c <cpy>:
3000006c:	e5914000 	ldr	r4, [r1]
30000070:	e5824000 	str	r4, [r2]
30000074:	e2811004 	add	r1, r1, #4	; 0x4
30000078:	e2822004 	add	r2, r2, #4	; 0x4
3000007c:	e1520003 	cmp	r2, r3
30000080:	dafffff9 	ble	3000006c <cpy>
30000084:	e59f1030 	ldr	r1, [pc, #48]	; 300000bc <.text+0xbc>
30000088:	e59f2030 	ldr	r2, [pc, #48]	; 300000c0 <.text+0xc0>
3000008c:	e3a03000 	mov	r3, #0	; 0x0

30000090 <clean>:
30000090:	e5813000 	str	r3, [r1]
30000094:	e2811004 	add	r1, r1, #4	; 0x4
30000098:	e1510002 	cmp	r1, r2
3000009c:	dafffffb 	ble	30000090 <clean>
300000a0:	eb000147 	bl	300005c4 <main>

300000a4 <halt>:
300000a4:	eafffffe 	b	300000a4 <halt>
300000a8:	4c000014 	stcmi	0, cr0, [r0], {20}
300000ac:	4c000004 	stcmi	0, cr0, [r0], {4}
300000b0:	0005c011 	andeq	ip, r5, r1, lsl r0
300000b4:	40001000 	andmi	r1, r0, r0
300000b8:	30000000 	andcc	r0, r0, r0
300000bc:	30000678 	andcc	r0, r0, r8, ror r6
300000c0:	30000680 	andcc	r0, r0, r0, lsl #13

300000c4 <delay>:
300000c4:	e1a0c00d 	mov	ip, sp
300000c8:	e92dd800 	stmdb	sp!, {fp, ip, lr, pc}
300000cc:	e24cb004 	sub	fp, ip, #4	; 0x4
300000d0:	e24dd004 	sub	sp, sp, #4	; 0x4
300000d4:	e50b0010 	str	r0, [fp, #-16]
300000d8:	e51b3010 	ldr	r3, [fp, #-16]
300000dc:	e2433001 	sub	r3, r3, #1	; 0x1
300000e0:	e50b3010 	str	r3, [fp, #-16]
300000e4:	e51b3010 	ldr	r3, [fp, #-16]
300000e8:	e3730001 	cmn	r3, #1	; 0x1
300000ec:	0a000000 	beq	300000f4 <delay+0x30>
300000f0:	eafffff8 	b	300000d8 <delay+0x14>
300000f4:	e89da808 	ldmia	sp, {r3, fp, sp, pc}

300000f8 <led_test>:
300000f8:	e1a0c00d 	mov	ip, sp
300000fc:	e92dd800 	stmdb	sp!, {fp, ip, lr, pc}
30000100:	e24cb004 	sub	fp, ip, #4	; 0x4
30000104:	e24dd008 	sub	sp, sp, #8	; 0x8
30000108:	e3a03000 	mov	r3, #0	; 0x0
3000010c:	e50b3010 	str	r3, [fp, #-16]
30000110:	e3a02456 	mov	r2, #1442840576	; 0x56000000
30000114:	e2822050 	add	r2, r2, #80	; 0x50
30000118:	e3a03456 	mov	r3, #1442840576	; 0x56000000
3000011c:	e2833050 	add	r3, r3, #80	; 0x50
30000120:	e5933000 	ldr	r3, [r3]
30000124:	e3c33c3f 	bic	r3, r3, #16128	; 0x3f00
30000128:	e5823000 	str	r3, [r2]
3000012c:	e3a02456 	mov	r2, #1442840576	; 0x56000000
30000130:	e2822050 	add	r2, r2, #80	; 0x50
30000134:	e3a03456 	mov	r3, #1442840576	; 0x56000000
30000138:	e2833050 	add	r3, r3, #80	; 0x50
3000013c:	e5933000 	ldr	r3, [r3]
30000140:	e3833c15 	orr	r3, r3, #5376	; 0x1500
30000144:	e5823000 	str	r3, [r2]
30000148:	e51b3010 	ldr	r3, [fp, #-16]
3000014c:	e1e03003 	mvn	r3, r3
30000150:	e50b3014 	str	r3, [fp, #-20]
30000154:	e51b3014 	ldr	r3, [fp, #-20]
30000158:	e2033007 	and	r3, r3, #7	; 0x7
3000015c:	e50b3014 	str	r3, [fp, #-20]
30000160:	e3a02456 	mov	r2, #1442840576	; 0x56000000
30000164:	e2822054 	add	r2, r2, #84	; 0x54
30000168:	e3a03456 	mov	r3, #1442840576	; 0x56000000
3000016c:	e2833054 	add	r3, r3, #84	; 0x54
30000170:	e5933000 	ldr	r3, [r3]
30000174:	e3c33070 	bic	r3, r3, #112	; 0x70
30000178:	e5823000 	str	r3, [r2]
3000017c:	e3a01456 	mov	r1, #1442840576	; 0x56000000
30000180:	e2811054 	add	r1, r1, #84	; 0x54
30000184:	e3a03456 	mov	r3, #1442840576	; 0x56000000
30000188:	e2833054 	add	r3, r3, #84	; 0x54
3000018c:	e51b2014 	ldr	r2, [fp, #-20]
30000190:	e1a02202 	mov	r2, r2, lsl #4
30000194:	e5933000 	ldr	r3, [r3]
30000198:	e1833002 	orr	r3, r3, r2
3000019c:	e5813000 	str	r3, [r1]
300001a0:	e3a00b61 	mov	r0, #99328	; 0x18400
300001a4:	e2800e2a 	add	r0, r0, #672	; 0x2a0
300001a8:	ebffffc5 	bl	300000c4 <delay>
300001ac:	e51b3010 	ldr	r3, [fp, #-16]
300001b0:	e2833001 	add	r3, r3, #1	; 0x1
300001b4:	e50b3010 	str	r3, [fp, #-16]
300001b8:	e51b3010 	ldr	r3, [fp, #-16]
300001bc:	e3530008 	cmp	r3, #8	; 0x8
300001c0:	1affffe0 	bne	30000148 <led_test+0x50>
300001c4:	e3a03000 	mov	r3, #0	; 0x0
300001c8:	e50b3010 	str	r3, [fp, #-16]
300001cc:	eaffffdd 	b	30000148 <led_test+0x50>

300001d0 <uart0_init>:
300001d0:	e1a0c00d 	mov	ip, sp
300001d4:	e92dd800 	stmdb	sp!, {fp, ip, lr, pc}
300001d8:	e24cb004 	sub	fp, ip, #4	; 0x4
300001dc:	e3a02456 	mov	r2, #1442840576	; 0x56000000
300001e0:	e2822070 	add	r2, r2, #112	; 0x70
300001e4:	e3a03456 	mov	r3, #1442840576	; 0x56000000
300001e8:	e2833070 	add	r3, r3, #112	; 0x70
300001ec:	e5933000 	ldr	r3, [r3]
300001f0:	e3c330f0 	bic	r3, r3, #240	; 0xf0
300001f4:	e5823000 	str	r3, [r2]
300001f8:	e3a02456 	mov	r2, #1442840576	; 0x56000000
300001fc:	e2822070 	add	r2, r2, #112	; 0x70
30000200:	e3a03456 	mov	r3, #1442840576	; 0x56000000
30000204:	e2833070 	add	r3, r3, #112	; 0x70
30000208:	e5933000 	ldr	r3, [r3]
3000020c:	e38330a0 	orr	r3, r3, #160	; 0xa0
30000210:	e5823000 	str	r3, [r2]
30000214:	e3a02456 	mov	r2, #1442840576	; 0x56000000
30000218:	e2822078 	add	r2, r2, #120	; 0x78
3000021c:	e3a03456 	mov	r3, #1442840576	; 0x56000000
30000220:	e2833078 	add	r3, r3, #120	; 0x78
30000224:	e5933000 	ldr	r3, [r3]
30000228:	e3c3300c 	bic	r3, r3, #12	; 0xc
3000022c:	e5823000 	str	r3, [r2]
30000230:	e3a02245 	mov	r2, #1342177284	; 0x50000004
30000234:	e3a03005 	mov	r3, #5	; 0x5
30000238:	e5823000 	str	r3, [r2]
3000023c:	e3a03205 	mov	r3, #1342177280	; 0x50000000
30000240:	e2833028 	add	r3, r3, #40	; 0x28
30000244:	e3a0201a 	mov	r2, #26	; 0x1a
30000248:	e5832000 	str	r2, [r3]
3000024c:	e3a02205 	mov	r2, #1342177280	; 0x50000000
30000250:	e3a03003 	mov	r3, #3	; 0x3
30000254:	e5823000 	str	r3, [r2]
30000258:	e89da800 	ldmia	sp, {fp, sp, pc}

3000025c <putchar>:
3000025c:	e1a0c00d 	mov	ip, sp
30000260:	e92dd800 	stmdb	sp!, {fp, ip, lr, pc}
30000264:	e24cb004 	sub	fp, ip, #4	; 0x4
30000268:	e24dd004 	sub	sp, sp, #4	; 0x4
3000026c:	e50b0010 	str	r0, [fp, #-16]
30000270:	e3a03205 	mov	r3, #1342177280	; 0x50000000
30000274:	e2833010 	add	r3, r3, #16	; 0x10
30000278:	e5933000 	ldr	r3, [r3]
3000027c:	e2033004 	and	r3, r3, #4	; 0x4
30000280:	e3530000 	cmp	r3, #0	; 0x0
30000284:	1a000000 	bne	3000028c <putchar+0x30>
30000288:	eafffff8 	b	30000270 <putchar+0x14>
3000028c:	e3a03205 	mov	r3, #1342177280	; 0x50000000
30000290:	e2833020 	add	r3, r3, #32	; 0x20
30000294:	e51b2010 	ldr	r2, [fp, #-16]
30000298:	e5c32000 	strb	r2, [r3]
3000029c:	e1a00003 	mov	r0, r3
300002a0:	e89da808 	ldmia	sp, {r3, fp, sp, pc}

300002a4 <getchar>:
300002a4:	e1a0c00d 	mov	ip, sp
300002a8:	e92dd800 	stmdb	sp!, {fp, ip, lr, pc}
300002ac:	e24cb004 	sub	fp, ip, #4	; 0x4
300002b0:	e3a03205 	mov	r3, #1342177280	; 0x50000000
300002b4:	e2833010 	add	r3, r3, #16	; 0x10
300002b8:	e5933000 	ldr	r3, [r3]
300002bc:	e2033001 	and	r3, r3, #1	; 0x1
300002c0:	e3530000 	cmp	r3, #0	; 0x0
300002c4:	1a000000 	bne	300002cc <getchar+0x28>
300002c8:	eafffff8 	b	300002b0 <getchar+0xc>
300002cc:	e3a03205 	mov	r3, #1342177280	; 0x50000000
300002d0:	e2833024 	add	r3, r3, #36	; 0x24
300002d4:	e5d33000 	ldrb	r3, [r3]
300002d8:	e20330ff 	and	r3, r3, #255	; 0xff
300002dc:	e1a00003 	mov	r0, r3
300002e0:	e89da800 	ldmia	sp, {fp, sp, pc}

300002e4 <puts>:
300002e4:	e1a0c00d 	mov	ip, sp
300002e8:	e92dd800 	stmdb	sp!, {fp, ip, lr, pc}
300002ec:	e24cb004 	sub	fp, ip, #4	; 0x4
300002f0:	e24dd004 	sub	sp, sp, #4	; 0x4
300002f4:	e50b0010 	str	r0, [fp, #-16]
300002f8:	e51b3010 	ldr	r3, [fp, #-16]
300002fc:	e5d33000 	ldrb	r3, [r3]
30000300:	e3530000 	cmp	r3, #0	; 0x0
30000304:	0a000007 	beq	30000328 <puts+0x44>
30000308:	e51b3010 	ldr	r3, [fp, #-16]
3000030c:	e5d33000 	ldrb	r3, [r3]
30000310:	e1a00003 	mov	r0, r3
30000314:	ebffffd0 	bl	3000025c <putchar>
30000318:	e51b3010 	ldr	r3, [fp, #-16]
3000031c:	e2833001 	add	r3, r3, #1	; 0x1
30000320:	e50b3010 	str	r3, [fp, #-16]
30000324:	eafffff3 	b	300002f8 <puts+0x14>
30000328:	e1a00003 	mov	r0, r3
3000032c:	e89da808 	ldmia	sp, {r3, fp, sp, pc}

30000330 <printHex>:
30000330:	e1a0c00d 	mov	ip, sp
30000334:	e92dd800 	stmdb	sp!, {fp, ip, lr, pc}
30000338:	e24cb004 	sub	fp, ip, #4	; 0x4
3000033c:	e24dd010 	sub	sp, sp, #16	; 0x10
30000340:	e50b0010 	str	r0, [fp, #-16]
30000344:	e3a03000 	mov	r3, #0	; 0x0
30000348:	e50b3014 	str	r3, [fp, #-20]
3000034c:	e51b3014 	ldr	r3, [fp, #-20]
30000350:	e3530007 	cmp	r3, #7	; 0x7
30000354:	ca00000e 	bgt	30000394 <printHex+0x64>
30000358:	e3e0200f 	mvn	r2, #15	; 0xf
3000035c:	e51b3014 	ldr	r3, [fp, #-20]
30000360:	e24b100c 	sub	r1, fp, #12	; 0xc
30000364:	e0813003 	add	r3, r1, r3
30000368:	e0832002 	add	r2, r3, r2
3000036c:	e51b3010 	ldr	r3, [fp, #-16]
30000370:	e203300f 	and	r3, r3, #15	; 0xf
30000374:	e5c23000 	strb	r3, [r2]
30000378:	e51b3010 	ldr	r3, [fp, #-16]
3000037c:	e1a03223 	mov	r3, r3, lsr #4
30000380:	e50b3010 	str	r3, [fp, #-16]
30000384:	e51b3014 	ldr	r3, [fp, #-20]
30000388:	e2833001 	add	r3, r3, #1	; 0x1
3000038c:	e50b3014 	str	r3, [fp, #-20]
30000390:	eaffffed 	b	3000034c <printHex+0x1c>
30000394:	e59f00d8 	ldr	r0, [pc, #216]	; 30000474 <.text+0x474>
30000398:	ebffffd1 	bl	300002e4 <puts>
3000039c:	e3a03007 	mov	r3, #7	; 0x7
300003a0:	e50b3014 	str	r3, [fp, #-20]
300003a4:	e51b3014 	ldr	r3, [fp, #-20]
300003a8:	e3530000 	cmp	r3, #0	; 0x0
300003ac:	ba00002e 	blt	3000046c <printHex+0x13c>
300003b0:	e3e0200f 	mvn	r2, #15	; 0xf
300003b4:	e51b3014 	ldr	r3, [fp, #-20]
300003b8:	e24b100c 	sub	r1, fp, #12	; 0xc
300003bc:	e0813003 	add	r3, r1, r3
300003c0:	e0833002 	add	r3, r3, r2
300003c4:	e5d33000 	ldrb	r3, [r3]
300003c8:	e3530009 	cmp	r3, #9	; 0x9
300003cc:	8a000009 	bhi	300003f8 <printHex+0xc8>
300003d0:	e3e0200f 	mvn	r2, #15	; 0xf
300003d4:	e51b3014 	ldr	r3, [fp, #-20]
300003d8:	e24b100c 	sub	r1, fp, #12	; 0xc
300003dc:	e0813003 	add	r3, r1, r3
300003e0:	e0833002 	add	r3, r3, r2
300003e4:	e5d33000 	ldrb	r3, [r3]
300003e8:	e2833030 	add	r3, r3, #48	; 0x30
300003ec:	e1a00003 	mov	r0, r3
300003f0:	ebffff99 	bl	3000025c <putchar>
300003f4:	ea000018 	b	3000045c <printHex+0x12c>
300003f8:	e3e0200f 	mvn	r2, #15	; 0xf
300003fc:	e51b3014 	ldr	r3, [fp, #-20]
30000400:	e24b100c 	sub	r1, fp, #12	; 0xc
30000404:	e0813003 	add	r3, r1, r3
30000408:	e0833002 	add	r3, r3, r2
3000040c:	e5d33000 	ldrb	r3, [r3]
30000410:	e3530009 	cmp	r3, #9	; 0x9
30000414:	9a000010 	bls	3000045c <printHex+0x12c>
30000418:	e3e0200f 	mvn	r2, #15	; 0xf
3000041c:	e51b3014 	ldr	r3, [fp, #-20]
30000420:	e24b100c 	sub	r1, fp, #12	; 0xc
30000424:	e0813003 	add	r3, r1, r3
30000428:	e0833002 	add	r3, r3, r2
3000042c:	e5d33000 	ldrb	r3, [r3]
30000430:	e353000f 	cmp	r3, #15	; 0xf
30000434:	8a000008 	bhi	3000045c <printHex+0x12c>
30000438:	e3e0200f 	mvn	r2, #15	; 0xf
3000043c:	e51b3014 	ldr	r3, [fp, #-20]
30000440:	e24b100c 	sub	r1, fp, #12	; 0xc
30000444:	e0813003 	add	r3, r1, r3
30000448:	e0833002 	add	r3, r3, r2
3000044c:	e5d33000 	ldrb	r3, [r3]
30000450:	e2833037 	add	r3, r3, #55	; 0x37
30000454:	e1a00003 	mov	r0, r3
30000458:	ebffff7f 	bl	3000025c <putchar>
3000045c:	e51b3014 	ldr	r3, [fp, #-20]
30000460:	e2433001 	sub	r3, r3, #1	; 0x1
30000464:	e50b3014 	str	r3, [fp, #-20]
30000468:	eaffffcd 	b	300003a4 <printHex+0x74>
3000046c:	e24bd00c 	sub	sp, fp, #12	; 0xc
30000470:	e89da800 	ldmia	sp, {fp, sp, pc}
30000474:	3000065c 	andcc	r0, r0, ip, asr r6

30000478 <sdram_init>:
30000478:	e1a0c00d 	mov	ip, sp
3000047c:	e92dd800 	stmdb	sp!, {fp, ip, lr, pc}
30000480:	e24cb004 	sub	fp, ip, #4	; 0x4
30000484:	e3a02312 	mov	r2, #1207959552	; 0x48000000
30000488:	e3a03422 	mov	r3, #570425344	; 0x22000000
3000048c:	e5823000 	str	r3, [r2]
30000490:	e3a02312 	mov	r2, #1207959552	; 0x48000000
30000494:	e282201c 	add	r2, r2, #28	; 0x1c
30000498:	e3a03906 	mov	r3, #98304	; 0x18000
3000049c:	e2833001 	add	r3, r3, #1	; 0x1
300004a0:	e5823000 	str	r3, [r2]
300004a4:	e3a02312 	mov	r2, #1207959552	; 0x48000000
300004a8:	e2822020 	add	r2, r2, #32	; 0x20
300004ac:	e3a03906 	mov	r3, #98304	; 0x18000
300004b0:	e2833001 	add	r3, r3, #1	; 0x1
300004b4:	e5823000 	str	r3, [r2]
300004b8:	e3a02312 	mov	r2, #1207959552	; 0x48000000
300004bc:	e2822024 	add	r2, r2, #36	; 0x24
300004c0:	e3a03721 	mov	r3, #8650752	; 0x840000
300004c4:	e2833e4f 	add	r3, r3, #1264	; 0x4f0
300004c8:	e2833005 	add	r3, r3, #5	; 0x5
300004cc:	e5823000 	str	r3, [r2]
300004d0:	e3a03312 	mov	r3, #1207959552	; 0x48000000
300004d4:	e2833028 	add	r3, r3, #40	; 0x28
300004d8:	e3a020b1 	mov	r2, #177	; 0xb1
300004dc:	e5832000 	str	r2, [r3]
300004e0:	e3a03312 	mov	r3, #1207959552	; 0x48000000
300004e4:	e283302c 	add	r3, r3, #44	; 0x2c
300004e8:	e3a02020 	mov	r2, #32	; 0x20
300004ec:	e5832000 	str	r2, [r3]
300004f0:	e3a03312 	mov	r3, #1207959552	; 0x48000000
300004f4:	e2833030 	add	r3, r3, #48	; 0x30
300004f8:	e3a02020 	mov	r2, #32	; 0x20
300004fc:	e5832000 	str	r2, [r3]
30000500:	e89da800 	ldmia	sp, {fp, sp, pc}

30000504 <sdram_test>:
30000504:	e1a0c00d 	mov	ip, sp
30000508:	e92dd800 	stmdb	sp!, {fp, ip, lr, pc}
3000050c:	e24cb004 	sub	fp, ip, #4	; 0x4
30000510:	e24dd00c 	sub	sp, sp, #12	; 0xc
30000514:	e3a03203 	mov	r3, #805306368	; 0x30000000
30000518:	e50b3010 	str	r3, [fp, #-16]
3000051c:	e3a03000 	mov	r3, #0	; 0x0
30000520:	e50b3014 	str	r3, [fp, #-20]
30000524:	e51b2014 	ldr	r2, [fp, #-20]
30000528:	e3a03ff9 	mov	r3, #996	; 0x3e4
3000052c:	e2833003 	add	r3, r3, #3	; 0x3
30000530:	e1520003 	cmp	r2, r3
30000534:	ca000008 	bgt	3000055c <sdram_test+0x58>
30000538:	e51b2010 	ldr	r2, [fp, #-16]
3000053c:	e51b3014 	ldr	r3, [fp, #-20]
30000540:	e0822003 	add	r2, r2, r3
30000544:	e3a03055 	mov	r3, #85	; 0x55
30000548:	e5c23000 	strb	r3, [r2]
3000054c:	e51b3014 	ldr	r3, [fp, #-20]
30000550:	e2833001 	add	r3, r3, #1	; 0x1
30000554:	e50b3014 	str	r3, [fp, #-20]
30000558:	eafffff1 	b	30000524 <sdram_test+0x20>
3000055c:	e3a03000 	mov	r3, #0	; 0x0
30000560:	e50b3014 	str	r3, [fp, #-20]
30000564:	e51b2014 	ldr	r2, [fp, #-20]
30000568:	e3a03ff9 	mov	r3, #996	; 0x3e4
3000056c:	e2833003 	add	r3, r3, #3	; 0x3
30000570:	e1520003 	cmp	r2, r3
30000574:	ca00000d 	bgt	300005b0 <sdram_test+0xac>
30000578:	e51b2010 	ldr	r2, [fp, #-16]
3000057c:	e51b3014 	ldr	r3, [fp, #-20]
30000580:	e0823003 	add	r3, r2, r3
30000584:	e5d33000 	ldrb	r3, [r3]
30000588:	e20330ff 	and	r3, r3, #255	; 0xff
3000058c:	e3530055 	cmp	r3, #85	; 0x55
30000590:	0a000002 	beq	300005a0 <sdram_test+0x9c>
30000594:	e3e03000 	mvn	r3, #0	; 0x0
30000598:	e50b3018 	str	r3, [fp, #-24]
3000059c:	ea000005 	b	300005b8 <sdram_test+0xb4>
300005a0:	e51b3014 	ldr	r3, [fp, #-20]
300005a4:	e2833001 	add	r3, r3, #1	; 0x1
300005a8:	e50b3014 	str	r3, [fp, #-20]
300005ac:	eaffffec 	b	30000564 <sdram_test+0x60>
300005b0:	e3a03000 	mov	r3, #0	; 0x0
300005b4:	e50b3018 	str	r3, [fp, #-24]
300005b8:	e51b0018 	ldr	r0, [fp, #-24]
300005bc:	e24bd00c 	sub	sp, fp, #12	; 0xc
300005c0:	e89da800 	ldmia	sp, {fp, sp, pc}

300005c4 <main>:
300005c4:	e1a0c00d 	mov	ip, sp
300005c8:	e92dd800 	stmdb	sp!, {fp, ip, lr, pc}
300005cc:	e24cb004 	sub	fp, ip, #4	; 0x4
300005d0:	ebfffefe 	bl	300001d0 <uart0_init>
300005d4:	e59f006c 	ldr	r0, [pc, #108]	; 30000648 <.text+0x648>
300005d8:	ebffff41 	bl	300002e4 <puts>
300005dc:	e59f3068 	ldr	r3, [pc, #104]	; 3000064c <.text+0x64c>
300005e0:	e5930000 	ldr	r0, [r3]
300005e4:	ebffff51 	bl	30000330 <printHex>
300005e8:	e59f0060 	ldr	r0, [pc, #96]	; 30000650 <.text+0x650>
300005ec:	ebffff3c 	bl	300002e4 <puts>
300005f0:	e59f305c 	ldr	r3, [pc, #92]	; 30000654 <.text+0x654>
300005f4:	e5d33000 	ldrb	r3, [r3]
300005f8:	e1a00003 	mov	r0, r3
300005fc:	ebffff16 	bl	3000025c <putchar>
30000600:	e59f204c 	ldr	r2, [pc, #76]	; 30000654 <.text+0x654>
30000604:	e59f3048 	ldr	r3, [pc, #72]	; 30000654 <.text+0x654>
30000608:	e5d33000 	ldrb	r3, [r3]
3000060c:	e2833001 	add	r3, r3, #1	; 0x1
30000610:	e5c23000 	strb	r3, [r2]
30000614:	e59f303c 	ldr	r3, [pc, #60]	; 30000658 <.text+0x658>
30000618:	e5d33000 	ldrb	r3, [r3]
3000061c:	e1a00003 	mov	r0, r3
30000620:	ebffff0d 	bl	3000025c <putchar>
30000624:	e59f202c 	ldr	r2, [pc, #44]	; 30000658 <.text+0x658>
30000628:	e59f3028 	ldr	r3, [pc, #40]	; 30000658 <.text+0x658>
3000062c:	e5d33000 	ldrb	r3, [r3]
30000630:	e2833001 	add	r3, r3, #1	; 0x1
30000634:	e5c23000 	strb	r3, [r2]
30000638:	e3a0093d 	mov	r0, #999424	; 0xf4000
3000063c:	e2800d09 	add	r0, r0, #576	; 0x240
30000640:	ebfffe9f 	bl	300000c4 <delay>
30000644:	eaffffe9 	b	300005f0 <main+0x2c>
30000648:	30000664 	andcc	r0, r0, r4, ror #12
3000064c:	30000678 	andcc	r0, r0, r8, ror r6
30000650:	30000670 	andcc	r0, r0, r0, ror r6
30000654:	30000674 	andcc	r0, r0, r4, ror r6
30000658:	30000675 	andcc	r0, r0, r5, ror r6
Disassembly of section .rodata:

3000065c <g_Char2-0x4>:
3000065c:	00007830 	andeq	r7, r0, r0, lsr r8

30000660 <g_Char2>:
30000660:	00000042 	andeq	r0, r0, r2, asr #32
30000664:	5f670d0a 	swipl	0x00670d0a
30000668:	203d2041 	eorcss	r2, sp, r1, asr #32
3000066c:	00000000 	andeq	r0, r0, r0
30000670:	00000d0a 	andeq	r0, r0, sl, lsl #26
Disassembly of section .data:

30000674 <g_Char>:
30000674:	Address 0x30000674 is out of bounds.


30000675 <g_Char3>:
30000675:	Address 0x30000675 is out of bounds.

Disassembly of section .bss:

30000678 <g_A>:
30000678:	00000000 	andeq	r0, r0, r0

3000067c <g_B>:
3000067c:	00000000 	andeq	r0, r0, r0
Disassembly of section .comment:

00000000 <.comment>:
   0:	43434700 	cmpmi	r3, #0	; 0x0
   4:	4728203a 	undefined
   8:	2029554e 	eorcs	r5, r9, lr, asr #10
   c:	2e342e33 	mrccs	14, 1, r2, cr4, cr3, {1}
  10:	47000035 	smladxmi	r0, r5, r0, r0
  14:	203a4343 	eorcss	r4, sl, r3, asr #6
  18:	554e4728 	strplb	r4, [lr, #-1832]
  1c:	2e332029 	cdpcs	0, 3, cr2, cr3, cr9, {1}
  20:	00352e34 	eoreqs	r2, r5, r4, lsr lr
  24:	43434700 	cmpmi	r3, #0	; 0x0
  28:	4728203a 	undefined
  2c:	2029554e 	eorcs	r5, r9, lr, asr #10
  30:	2e342e33 	mrccs	14, 1, r2, cr4, cr3, {1}
  34:	47000035 	smladxmi	r0, r5, r0, r0
  38:	203a4343 	eorcss	r4, sl, r3, asr #6
  3c:	554e4728 	strplb	r4, [lr, #-1832]
  40:	2e332029 	cdpcs	0, 3, cr2, cr3, cr9, {1}
  44:	00352e34 	eoreqs	r2, r5, r4, lsr lr
